; Function Attrs: mustprogress uwtable
define noundef zeroext i1 @_ZNK32pxrInternal_v0_24__pxrReserved__14HdReprSelectorltERKS0_(ptr noundef nonnull align 8 dereferenceable(24) %0, ptr noundef nonnull align 8 dereferenceable(24) %1) local_unnamed_addr #1 align 2 personality ptr @__gxx_personality_v0 {
  %3 = alloca %"class.std::tuple", align 8
  %4 = alloca %"class.std::tuple", align 8
  %5 = getelementptr inbounds nuw i8, ptr %0, i64 8
  %6 = getelementptr inbounds nuw i8, ptr %0, i64 16
  store ptr %6, ptr %3, align 8, !alias.scope !6
  %7 = getelementptr inbounds i8, ptr %3, i64 8
  store ptr %5, ptr %7, align 8, !alias.scope !6
  %8 = getelementptr inbounds i8, ptr %3, i64 16
  store ptr %0, ptr %8, align 8, !alias.scope !6
  %9 = getelementptr inbounds nuw i8, ptr %1, i64 8
  %10 = getelementptr inbounds nuw i8, ptr %1, i64 16
  store ptr %10, ptr %4, align 8, !alias.scope !9
  %11 = getelementptr inbounds i8, ptr %4, i64 8
  store ptr %9, ptr %11, align 8, !alias.scope !9
  %12 = getelementptr inbounds i8, ptr %4, i64 16
  store ptr %1, ptr %12, align 8, !alias.scope !9
  %13 = call noundef zeroext i1 @_ZNSt15__tuple_compareISt5tupleIJRKN32pxrInternal_v0_24__pxrReserved__7TfTokenES4_S4_EES5_Lm0ELm3EE6__lessERKS5_S8_(ptr noundef nonnull align 8 dereferenceable(24) %3, ptr noundef nonnull align 8 dereferenceable(24) %4)
  ret i1 %13
}